target datalayout = "e-m:e-p270:32:32-p271:32:32-p272:64:64-i64:64-i128:128-f80:128-n8:16:32:64-S128"
target triple = "x86_64-pc-linux-gnu"

; Function Attrs: mustprogress nounwind uwtable
define dso_local noundef float @_Z7GetDistfffPKf(float noundef %0, float noundef %1, float noundef %2, ptr noundef %3) #1 {
  %5 = alloca float, align 4
  %6 = alloca float, align 4
  %7 = alloca float, align 4
  %8 = alloca ptr, align 8
  %9 = alloca float, align 4
  %10 = alloca float, align 4
  %11 = alloca float, align 4
  store float %0, ptr %5, align 4, !tbaa !15
  store float %1, ptr %6, align 4, !tbaa !15
  store float %2, ptr %7, align 4, !tbaa !15
  store ptr %3, ptr %8, align 8, !tbaa !19
  call void @llvm.lifetime.start.p0(i64 4, ptr %9) #14
  %12 = load float, ptr %5, align 4, !tbaa !15
  %13 = load ptr, ptr %8, align 8, !tbaa !19
  %14 = getelementptr inbounds float, ptr %13, i64 0
  %15 = load float, ptr %14, align 4, !tbaa !15
  %16 = fsub float %12, %15
  store float %16, ptr %9, align 4, !tbaa !15
  call void @llvm.lifetime.start.p0(i64 4, ptr %10) #14
  %17 = load float, ptr %6, align 4, !tbaa !15
  %18 = load ptr, ptr %8, align 8, !tbaa !19
  %19 = getelementptr inbounds float, ptr %18, i64 1
  %20 = load float, ptr %19, align 4, !tbaa !15
  %21 = fsub float %17, %20
  store float %21, ptr %10, align 4, !tbaa !15
  call void @llvm.lifetime.start.p0(i64 4, ptr %11) #14
  %22 = load float, ptr %7, align 4, !tbaa !15
  %23 = load ptr, ptr %8, align 8, !tbaa !19
  %24 = getelementptr inbounds float, ptr %23, i64 2
  %25 = load float, ptr %24, align 4, !tbaa !15
  %26 = fsub float %22, %25
  store float %26, ptr %11, align 4, !tbaa !15
  %27 = load float, ptr %9, align 4, !tbaa !15
  %28 = load float, ptr %9, align 4, !tbaa !15
  %29 = load float, ptr %10, align 4, !tbaa !15
  %30 = load float, ptr %10, align 4, !tbaa !15
  %31 = fmul float %29, %30
  %32 = call float @llvm.fmuladd.f32(float %27, float %28, float %31)
  %33 = load float, ptr %11, align 4, !tbaa !15
  %34 = load float, ptr %11, align 4, !tbaa !15
  %35 = call float @llvm.fmuladd.f32(float %33, float %34, float %32)
  call void @llvm.lifetime.end.p0(i64 4, ptr %11) #14
  call void @llvm.lifetime.end.p0(i64 4, ptr %10) #14
  call void @llvm.lifetime.end.p0(i64 4, ptr %9) #14
  ret float %35
}