; Function Attrs: mustprogress nofree norecurse nosync nounwind willreturn memory(argmem: read) uwtable
define dso_local noundef float @_Z7GetDistfffPKf(float noundef %0, float noundef %1, float noundef %2, ptr noundef readonly captures(none) %3) local_unnamed_addr #7 {
  %5 = load float, ptr %3, align 4, !tbaa !4
  %6 = fsub float %0, %5
  %7 = getelementptr inbounds nuw i8, ptr %3, i64 4
  %8 = load float, ptr %7, align 4, !tbaa !4
  %9 = fsub float %1, %8
  %10 = getelementptr inbounds nuw i8, ptr %3, i64 8
  %11 = load float, ptr %10, align 4, !tbaa !4
  %12 = fsub float %2, %11
  %13 = fmul float %9, %9
  %14 = tail call float @llvm.fmuladd.f32(float %6, float %6, float %13)
  %15 = tail call float @llvm.fmuladd.f32(float %12, float %12, float %14)
  ret float %15
}